; Function Attrs: nofree norecurse nosync nounwind memory(argmem: readwrite) uwtable
define void @getConjugateMatrix2(ptr dead_on_unwind noalias writable writeonly sret(%struct.ComplexMatrix2) align 8 captures(none) %0, ptr noundef readonly byval(%struct.ComplexMatrix2) align 8 captures(none) %1) local_unnamed_addr #7 {
  %3 = getelementptr inbounds nuw i8, ptr %1, i64 32
  %4 = getelementptr inbounds nuw i8, ptr %0, i64 32
  br label %.preheader

.preheader:                                       ; preds = %2, %.preheader
  %5 = phi i1 [ true, %2 ], [ false, %.preheader ]
  %indvars.iv16 = phi i64 [ 0, %2 ], [ 1, %.preheader ]
  %6 = getelementptr inbounds nuw [2 x [2 x double]], ptr %1, i64 0, i64 %indvars.iv16, i64 0
  %7 = load double, ptr %6, align 8, !tbaa !13
  %8 = getelementptr inbounds nuw [2 x [2 x double]], ptr %0, i64 0, i64 %indvars.iv16, i64 0
  store double %7, ptr %8, align 8, !tbaa !13
  %9 = getelementptr inbounds nuw [2 x [2 x double]], ptr %3, i64 0, i64 %indvars.iv16, i64 0
  %10 = load double, ptr %9, align 8, !tbaa !13
  %11 = fneg double %10
  %12 = getelementptr inbounds nuw [2 x [2 x double]], ptr %4, i64 0, i64 %indvars.iv16, i64 0
  store double %11, ptr %12, align 8, !tbaa !13
  %13 = getelementptr inbounds nuw [2 x [2 x double]], ptr %1, i64 0, i64 %indvars.iv16, i64 1
  %14 = load double, ptr %13, align 8, !tbaa !13
  %15 = getelementptr inbounds nuw [2 x [2 x double]], ptr %0, i64 0, i64 %indvars.iv16, i64 1
  store double %14, ptr %15, align 8, !tbaa !13
  %.idx = shl nuw nsw i64 %indvars.iv16, 4
  %.offs = or disjoint i64 %.idx, 8
  %16 = getelementptr inbounds nuw i8, ptr %3, i64 %.offs
  %17 = load double, ptr %16, align 8, !tbaa !13
  %18 = fneg double %17
  %.idx19 = shl nuw nsw i64 %indvars.iv16, 4
  %.offs20 = or disjoint i64 %.idx19, 8
  %19 = getelementptr inbounds nuw i8, ptr %4, i64 %.offs20
  store double %18, ptr %19, align 8, !tbaa !13
  br i1 %5, label %.preheader, label %20

20:                                               ; preds = %.preheader
  ret void
}